; Function Attrs: mustprogress nofree norecurse nosync nounwind willreturn memory(argmem: readwrite) uwtable
define noundef i32 @wolfSSL_AllowEncryptThenMac(ptr noundef captures(none) %0, i32 noundef %1) local_unnamed_addr #4 {
  %.not = icmp eq i32 %1, 0
  %3 = getelementptr inbounds nuw i8, ptr %0, i64 1024
  %4 = load i64, ptr %3, align 8
  %5 = select i1 %.not, i64 4503599627370496, i64 0
  %6 = and i64 %4, -4503599627370497
  %7 = or disjoint i64 %6, %5
  store i64 %7, ptr %3, align 8
  ret i32 1
}